; Function Attrs: mustprogress nofree norecurse nosync nounwind willreturn memory(argmem: read) uwtable
define noundef zeroext i1 @_ZNK13sentencepiece25MultiFileSentenceIterator4doneEv(ptr nocapture noundef nonnull readonly align 8 dereferenceable(88) %0) unnamed_addr #5 align 2 {
  %2 = getelementptr inbounds i8, ptr %0, i64 8
  %3 = load i8, ptr %2, align 8
  %4 = trunc i8 %3 to i1
  br i1 %4, label %17, label %5

5:                                                ; preds = %1
  %6 = getelementptr inbounds i8, ptr %0, i64 16
  %7 = load i64, ptr %6, align 8
  %8 = getelementptr inbounds i8, ptr %0, i64 24
  %9 = getelementptr inbounds i8, ptr %0, i64 32
  %10 = load ptr, ptr %9, align 8
  %11 = load ptr, ptr %8, align 8
  %12 = ptrtoint ptr %10 to i64
  %13 = ptrtoint ptr %11 to i64
  %14 = sub i64 %12, %13
  %15 = ashr exact i64 %14, 5
  %16 = icmp eq i64 %7, %15
  br label %17

17:                                               ; preds = %5, %1
  %18 = phi i1 [ false, %1 ], [ %16, %5 ]
  ret i1 %18
}